target datalayout = "e-m:e-p270:32:32-p271:32:32-p272:64:64-i64:64-i128:128-f80:128-n8:16:32:64-S128"
target triple = "x86_64-pc-linux-gnu"

%class.RegMask = type { %union.anon, i32, i32 }
%union.anon = type { [11 x i64] }
%class.Node = type <{ ptr, ptr, ptr, i32, i32, i32, i32, i32, i32, i32, [4 x i8] }>

; Function Attrs: mustprogress nounwind uwtable
define linkonce_odr hidden noundef i32 @_Z23count_trailing_zeros_64m(i64 noundef %0) #1 comdat {
  %2 = alloca i64, align 8
  store i64 %0, ptr %2, align 8
  %3 = load i64, ptr %2, align 8
  %4 = call i64 @llvm.cttz.i64(i64 %3, i1 true)
  %5 = trunc i64 %4 to i32
  ret i32 %5
}

; Function Attrs: mustprogress nounwind uwtable
define linkonce_odr hidden noundef i32 @_Z20count_trailing_zerosImTnNSt9enable_ifIXcvbsr3std11is_integralIT_EE5valueEiE4typeELi0ETnNS0_IXcvblestS1_Lm8EEiE4typeELi0EEjS1_(i64 noundef %0) #1 comdat {
  %2 = alloca i64, align 8
  store i64 %0, ptr %2, align 8
  %3 = load i64, ptr %2, align 8
  %4 = call noundef i32 @_Z23count_trailing_zeros_64m(i64 noundef %3)
  ret i32 %4
}

; Function Attrs: mustprogress nounwind uwtable
define internal noundef i32 @_ZL15find_lowest_bitm(i64 noundef %0) #1 {
  %2 = alloca i64, align 8
  store i64 %0, ptr %2, align 8
  %3 = load i64, ptr %2, align 8
  %4 = call noundef i32 @_Z20count_trailing_zerosImTnNSt9enable_ifIXcvbsr3std11is_integralIT_EE5valueEiE4typeELi0ETnNS0_IXcvblestS1_Lm8EEiE4typeELi0EEjS1_(i64 noundef %3)
  ret i32 %4
}

; Function Attrs: mustprogress nounwind uwtable
define linkonce_odr hidden noundef ptr @_ZNK4Node10as_BoxLockEv(ptr noundef nonnull align 8 dereferenceable(52) %0) #1 comdat align 2 {
  %2 = alloca ptr, align 8
  store ptr %0, ptr %2, align 8
  %3 = load ptr, ptr %2, align 8
  ret ptr %3
}

; Function Attrs: mustprogress nounwind uwtable
define linkonce_odr hidden noundef ptr @_ZNK4Node2inEj(ptr noundef nonnull align 8 dereferenceable(52) %0, i32 noundef %1) #1 comdat align 2 {
  %3 = alloca ptr, align 8
  %4 = alloca i32, align 4
  store ptr %0, ptr %3, align 8
  store i32 %1, ptr %4, align 4
  %5 = load ptr, ptr %3, align 8
  %6 = getelementptr inbounds %class.Node, ptr %5, i32 0, i32 1
  %7 = load ptr, ptr %6, align 8
  %8 = load i32, ptr %4, align 4
  %9 = zext i32 %8 to i64
  %10 = getelementptr inbounds ptr, ptr %7, i64 %9
  %11 = load ptr, ptr %10, align 8
  ret ptr %11
}

; Function Attrs: mustprogress nounwind uwtable
define linkonce_odr hidden noundef zeroext i1 @_ZNK4Node10is_BoxLockEv(ptr noundef nonnull align 8 dereferenceable(52) %0) #1 comdat align 2 {
  %2 = alloca ptr, align 8
  store ptr %0, ptr %2, align 8
  %3 = load ptr, ptr %2, align 8
  %4 = getelementptr inbounds %class.Node, ptr %3, i32 0, i32 8
  %5 = load i32, ptr %4, align 4
  %6 = and i32 %5, 2047
  %7 = icmp eq i32 %6, 1024
  ret i1 %7
}

; Function Attrs: mustprogress nounwind uwtable
define linkonce_odr hidden noundef i32 @_ZNK7RegMask15find_first_elemEv(ptr noundef nonnull align 8 dereferenceable(96) %0) #1 comdat align 2 {
  %2 = alloca i32, align 4
  %3 = alloca ptr, align 8
  %4 = alloca i32, align 4
  %5 = alloca i64, align 8
  store ptr %0, ptr %3, align 8
  %6 = load ptr, ptr %3, align 8
  %7 = getelementptr inbounds %class.RegMask, ptr %6, i32 0, i32 1
  %8 = load i32, ptr %7, align 8
  store i32 %8, ptr %4, align 4
  br label %9

9:                                                ; preds = %29, %1
  %10 = load i32, ptr %4, align 4
  %11 = getelementptr inbounds %class.RegMask, ptr %6, i32 0, i32 2
  %12 = load i32, ptr %11, align 4
  %13 = icmp ule i32 %10, %12
  br i1 %13, label %14, label %32

14:                                               ; preds = %9
  %15 = getelementptr inbounds %class.RegMask, ptr %6, i32 0, i32 0
  %16 = load i32, ptr %4, align 4
  %17 = zext i32 %16 to i64
  %18 = getelementptr inbounds [11 x i64], ptr %15, i64 0, i64 %17
  %19 = load i64, ptr %18, align 8
  store i64 %19, ptr %5, align 8
  %20 = load i64, ptr %5, align 8
  %21 = icmp ne i64 %20, 0
  br i1 %21, label %22, label %28

22:                                               ; preds = %14
  %23 = load i32, ptr %4, align 4
  %24 = shl i32 %23, 6
  %25 = load i64, ptr %5, align 8
  %26 = call noundef i32 @_ZL15find_lowest_bitm(i64 noundef %25)
  %27 = add i32 %24, %26
  store i32 %27, ptr %2, align 4
  br label %33

28:                                               ; preds = %14
  br label %29

29:                                               ; preds = %28
  %30 = load i32, ptr %4, align 4
  %31 = add i32 %30, 1
  store i32 %31, ptr %4, align 4
  br label %9, !llvm.loop !8

32:                                               ; preds = %9
  store i32 -1, ptr %2, align 4
  br label %33

33:                                               ; preds = %32, %22
  %34 = load i32, ptr %2, align 4
  ret i32 %34
}

; Function Attrs: mustprogress nounwind uwtable
define hidden noundef ptr @_ZN11BoxLockNode8box_nodeEP4Node(ptr noundef %0) #1 align 2 {
  %2 = alloca ptr, align 8
  store ptr %0, ptr %2, align 8
  br label %3

3:                                                ; preds = %7, %1
  %4 = load ptr, ptr %2, align 8
  %5 = call noundef zeroext i1 @_ZNK4Node10is_BoxLockEv(ptr noundef nonnull align 8 dereferenceable(52) %4)
  %6 = xor i1 %5, true
  br i1 %6, label %7, label %10

7:                                                ; preds = %3
  %8 = load ptr, ptr %2, align 8
  %9 = call noundef ptr @_ZNK4Node2inEj(ptr noundef nonnull align 8 dereferenceable(52) %8, i32 noundef 1)
  store ptr %9, ptr %2, align 8
  br label %3, !llvm.loop !6

10:                                               ; preds = %3
  %11 = load ptr, ptr %2, align 8
  %12 = call noundef ptr @_ZNK4Node10as_BoxLockEv(ptr noundef nonnull align 8 dereferenceable(52) %11)
  ret ptr %12
}

; Function Attrs: mustprogress nounwind uwtable
define hidden noundef i32 @_ZN11BoxLockNode3regEP4Node(ptr noundef %0) #1 align 2 {
  %2 = alloca ptr, align 8
  store ptr %0, ptr %2, align 8
  %3 = load ptr, ptr %2, align 8
  %4 = call noundef ptr @_ZN11BoxLockNode8box_nodeEP4Node(ptr noundef %3)
  %5 = load ptr, ptr %4, align 8
  %6 = getelementptr inbounds ptr, ptr %5, i64 17
  %7 = load ptr, ptr %6, align 8
  %8 = call noundef nonnull align 8 dereferenceable(96) ptr %7(ptr noundef nonnull align 8 dereferenceable(156) %4, i32 noundef 0)
  %9 = call noundef i32 @_ZNK7RegMask15find_first_elemEv(ptr noundef nonnull align 8 dereferenceable(96) %8)
  ret i32 %9
}