; Function Attrs: mustprogress nounwind uwtable
define hidden noundef i32 @_ZN11BoxLockNode3regEP4Node(ptr noundef %0) local_unnamed_addr #2 align 2 {
  %2 = getelementptr inbounds i8, ptr %0, i64 44
  %3 = load i32, ptr %2, align 4
  %4 = and i32 %3, 2047
  %5 = icmp eq i32 %4, 1024
  br i1 %5, label %_ZN11BoxLockNode8box_nodeEP4Node.exit, label %.lr.ph.i

.lr.ph.i:                                         ; preds = %1, %.lr.ph.i
  %.03.i = phi ptr [ %9, %.lr.ph.i ], [ %0, %1 ]
  %6 = getelementptr inbounds i8, ptr %.03.i, i64 8
  %7 = load ptr, ptr %6, align 8
  %8 = getelementptr inbounds i8, ptr %7, i64 8
  %9 = load ptr, ptr %8, align 8
  %10 = getelementptr inbounds i8, ptr %9, i64 44
  %11 = load i32, ptr %10, align 4
  %12 = and i32 %11, 2047
  %13 = icmp eq i32 %12, 1024
  br i1 %13, label %_ZN11BoxLockNode8box_nodeEP4Node.exit, label %.lr.ph.i, !llvm.loop !6

_ZN11BoxLockNode8box_nodeEP4Node.exit:            ; preds = %.lr.ph.i, %1
  %.0.lcssa.i = phi ptr [ %0, %1 ], [ %9, %.lr.ph.i ]
  %14 = load ptr, ptr %.0.lcssa.i, align 8
  %15 = getelementptr inbounds i8, ptr %14, i64 136
  %16 = load ptr, ptr %15, align 8
  %17 = tail call noundef nonnull align 8 dereferenceable(96) ptr %16(ptr noundef nonnull align 8 dereferenceable(156) %.0.lcssa.i, i32 noundef 0) #8
  %18 = getelementptr inbounds i8, ptr %17, i64 88
  %19 = load i32, ptr %18, align 8
  %20 = getelementptr inbounds i8, ptr %17, i64 92
  %21 = load i32, ptr %20, align 4
  %.not11.i = icmp ugt i32 %19, %21
  br i1 %.not11.i, label %_ZNK7RegMask15find_first_elemEv.exit, label %.lr.ph.i1

.lr.ph.i1:                                        ; preds = %_ZN11BoxLockNode8box_nodeEP4Node.exit, %30
  %.0712.i = phi i32 [ %31, %30 ], [ %19, %_ZN11BoxLockNode8box_nodeEP4Node.exit ]
  %22 = zext i32 %.0712.i to i64
  %23 = getelementptr inbounds [11 x i64], ptr %17, i64 0, i64 %22
  %24 = load i64, ptr %23, align 8
  %.not9.i = icmp eq i64 %24, 0
  br i1 %.not9.i, label %30, label %25

25:                                               ; preds = %.lr.ph.i1
  %26 = shl i32 %.0712.i, 6
  %27 = tail call range(i64 0, 65) i64 @llvm.cttz.i64(i64 %24, i1 true)
  %28 = trunc nuw nsw i64 %27 to i32
  %29 = or disjoint i32 %26, %28
  br label %_ZNK7RegMask15find_first_elemEv.exit

30:                                               ; preds = %.lr.ph.i1
  %31 = add i32 %.0712.i, 1
  %.not.i = icmp ugt i32 %31, %21
  br i1 %.not.i, label %_ZNK7RegMask15find_first_elemEv.exit, label %.lr.ph.i1, !llvm.loop !8

_ZNK7RegMask15find_first_elemEv.exit:             ; preds = %30, %_ZN11BoxLockNode8box_nodeEP4Node.exit, %25
  %.0.i = phi i32 [ %29, %25 ], [ -1, %_ZN11BoxLockNode8box_nodeEP4Node.exit ], [ -1, %30 ]
  ret i32 %.0.i
}